; Function Attrs: mustprogress uwtable
define internal void @_ZNK7V3Sched12_GLOBAL__N_123SchedReplicateVarVertex8dotShapeB5cxx11Ev(ptr dead_on_unwind noalias writable sret(%"class.std::__cxx11::basic_string") align 8 %0, ptr nocapture noundef nonnull readonly align 8 dereferenceable(96) %1) unnamed_addr #3 align 2 personality ptr @__gxx_personality_v0 {
  %3 = alloca %"class.std::allocator.2", align 1
  %4 = getelementptr inbounds i8, ptr %1, i64 88
  %.val = load ptr, ptr %4, align 8
  %5 = getelementptr i8, ptr %.val, i64 168
  %.val.val = load ptr, ptr %5, align 8
  %6 = getelementptr inbounds i8, ptr %.val.val, i64 260
  %7 = load i64, ptr %6, align 4
  %8 = and i64 %7, 8
  %.not.i = icmp eq i64 %8, 0
  br i1 %.not.i, label %_ZNK6AstVar14isPrimaryInishEv.exit, label %9

9:                                                ; preds = %2
  %10 = getelementptr inbounds i8, ptr %.val.val, i64 249
  %11 = load i8, ptr %10, align 1
  %switch.tableidx = add i8 %11, -1
  %12 = icmp ult i8 %switch.tableidx, 5
  br i1 %12, label %switch.lookup, label %_ZNK6AstVar14isPrimaryInishEv.exit

switch.lookup:                                    ; preds = %9
  %13 = zext nneg i8 %switch.tableidx to i64
  %switch.gep = getelementptr inbounds [5 x ptr], ptr @switch.table._ZNK7V3Sched12_GLOBAL__N_123SchedReplicateVarVertex8dotShapeB5cxx11Ev, i64 0, i64 %13
  %switch.load = load ptr, ptr %switch.gep, align 8
  br label %_ZNK6AstVar14isPrimaryInishEv.exit

_ZNK6AstVar14isPrimaryInishEv.exit:               ; preds = %2, %9, %switch.lookup
  %14 = phi ptr [ %switch.load, %switch.lookup ], [ @.str.27, %9 ], [ @.str.27, %2 ]
  call void @_ZNSaIcEC1Ev(ptr noundef nonnull align 1 dereferenceable(1) %3) #24
  %15 = invoke noundef ptr @_ZNSt7__cxx1112basic_stringIcSt11char_traitsIcESaIcEE13_M_local_dataEv(ptr noundef nonnull align 8 dereferenceable(32) %0)
          to label %.noexc unwind label %20

.noexc:                                           ; preds = %_ZNK6AstVar14isPrimaryInishEv.exit
  invoke void @_ZNSt7__cxx1112basic_stringIcSt11char_traitsIcESaIcEE12_Alloc_hiderC1EPcRKS3_(ptr noundef nonnull align 8 dereferenceable(8) %0, ptr noundef %15, ptr noundef nonnull align 1 dereferenceable(1) %3)
          to label %.noexc2 unwind label %20

.noexc2:                                          ; preds = %.noexc
  %16 = call noundef i64 @strlen(ptr noundef nonnull dereferenceable(1) %14) #24
  %17 = getelementptr inbounds i8, ptr %14, i64 %16
  invoke void @_ZNSt7__cxx1112basic_stringIcSt11char_traitsIcESaIcEE12_M_constructIPKcEEvT_S8_St20forward_iterator_tag(ptr noundef nonnull align 8 dereferenceable(32) %0, ptr noundef nonnull %14, ptr noundef nonnull %17)
          to label %_ZNSt7__cxx1112basic_stringIcSt11char_traitsIcESaIcEEC2IS3_EEPKcRKS3_.exit unwind label %18

18:                                               ; preds = %.noexc2
  %19 = landingpad { ptr, i32 }
          cleanup
  call void @_ZNSaIcED2Ev(ptr noundef nonnull align 1 dereferenceable(1) %0) #24
  br label %.body

_ZNSt7__cxx1112basic_stringIcSt11char_traitsIcESaIcEEC2IS3_EEPKcRKS3_.exit: ; preds = %.noexc2
  call void @_ZNSaIcED1Ev(ptr noundef nonnull align 1 dereferenceable(1) %3) #24
  ret void

20:                                               ; preds = %.noexc, %_ZNK6AstVar14isPrimaryInishEv.exit
  %21 = landingpad { ptr, i32 }
          cleanup
  br label %.body

.body:                                            ; preds = %18, %20
  %eh.lpad-body = phi { ptr, i32 } [ %21, %20 ], [ %19, %18 ]
  call void @_ZNSaIcED1Ev(ptr noundef nonnull align 1 dereferenceable(1) %3) #24
  resume { ptr, i32 } %eh.lpad-body
}